target datalayout = "e-m:e-p270:32:32-p271:32:32-p272:64:64-i64:64-i128:128-f80:128-n8:16:32:64-S128"
target triple = "x86_64-pc-linux-gnu"

%struct.GinScanOpaqueData = type { ptr, %struct.GinState, ptr, i32, ptr, i32, i32, ptr, i8 }
%struct.GinState = type { ptr, i8, ptr, [32 x ptr], [32 x %struct.FmgrInfo], [32 x %struct.FmgrInfo], [32 x %struct.FmgrInfo], [32 x %struct.FmgrInfo], [32 x %struct.FmgrInfo], [32 x %struct.FmgrInfo], [32 x i8], [32 x i32] }
%struct.FmgrInfo = type { ptr, i32, i16, i8, i8, i8, ptr, ptr, ptr }
%struct.ItemPointerData = type { %struct.BlockIdData, i16 }
%struct.BlockIdData = type { i16, i16 }
%struct.GinScanEntryData = type { i64, i8, i8, ptr, i16, i32, i16, i32, %struct.ItemPointerData, ptr, ptr, ptr, ptr, i32, i16, i8, i8, i32, %struct.GinBtreeData }
%struct.GinBtreeData = type { ptr, ptr, ptr, ptr, ptr, ptr, ptr, ptr, ptr, i8, ptr, i32, ptr, i8, i8, i16, i64, i8, %struct.ItemPointerData }

; Function Attrs: nounwind uwtable
define dso_local void @ginFreeScanKeys(ptr noundef %0) #0 {
  %2 = alloca ptr, align 8
  %3 = alloca i32, align 4
  %4 = alloca i32, align 4
  %5 = alloca ptr, align 8
  store ptr %0, ptr %2, align 8
  call void @llvm.lifetime.start.p0(i64 4, ptr %3) #8
  %6 = load ptr, ptr %2, align 8
  %7 = getelementptr inbounds nuw %struct.GinScanOpaqueData, ptr %6, i32 0, i32 2
  %8 = load ptr, ptr %7, align 8
  %9 = icmp eq ptr %8, null
  br i1 %9, label %10, label %11

10:                                               ; preds = %1
  store i32 1, ptr %4, align 4
  br label %77

11:                                               ; preds = %1
  store i32 0, ptr %3, align 4
  br label %12

12:                                               ; preds = %62, %11
  %13 = load i32, ptr %3, align 4
  %14 = load ptr, ptr %2, align 8
  %15 = getelementptr inbounds nuw %struct.GinScanOpaqueData, ptr %14, i32 0, i32 5
  %16 = load i32, ptr %15, align 8
  %17 = icmp ult i32 %13, %16
  br i1 %17, label %18, label %65

18:                                               ; preds = %12
  call void @llvm.lifetime.start.p0(i64 8, ptr %5) #8
  %19 = load ptr, ptr %2, align 8
  %20 = getelementptr inbounds nuw %struct.GinScanOpaqueData, ptr %19, i32 0, i32 4
  %21 = load ptr, ptr %20, align 8
  %22 = load i32, ptr %3, align 4
  %23 = zext i32 %22 to i64
  %24 = getelementptr inbounds nuw ptr, ptr %21, i64 %23
  %25 = load ptr, ptr %24, align 8
  store ptr %25, ptr %5, align 8
  %26 = load ptr, ptr %5, align 8
  %27 = getelementptr inbounds nuw %struct.GinScanEntryData, ptr %26, i32 0, i32 7
  %28 = load i32, ptr %27, align 4
  %29 = icmp ne i32 %28, 0
  br i1 %29, label %30, label %34

30:                                               ; preds = %18
  %31 = load ptr, ptr %5, align 8
  %32 = getelementptr inbounds nuw %struct.GinScanEntryData, ptr %31, i32 0, i32 7
  %33 = load i32, ptr %32, align 4
  call void @ReleaseBuffer(i32 noundef %33)
  br label %34

34:                                               ; preds = %30, %18
  %35 = load ptr, ptr %5, align 8
  %36 = getelementptr inbounds nuw %struct.GinScanEntryData, ptr %35, i32 0, i32 12
  %37 = load ptr, ptr %36, align 8
  %38 = icmp ne ptr %37, null
  br i1 %38, label %39, label %43

39:                                               ; preds = %34
  %40 = load ptr, ptr %5, align 8
  %41 = getelementptr inbounds nuw %struct.GinScanEntryData, ptr %40, i32 0, i32 12
  %42 = load ptr, ptr %41, align 8
  call void @pfree(ptr noundef %42)
  br label %43

43:                                               ; preds = %39, %34
  %44 = load ptr, ptr %5, align 8
  %45 = getelementptr inbounds nuw %struct.GinScanEntryData, ptr %44, i32 0, i32 10
  %46 = load ptr, ptr %45, align 8
  %47 = icmp ne ptr %46, null
  br i1 %47, label %48, label %52

48:                                               ; preds = %43
  %49 = load ptr, ptr %5, align 8
  %50 = getelementptr inbounds nuw %struct.GinScanEntryData, ptr %49, i32 0, i32 10
  %51 = load ptr, ptr %50, align 8
  call void @tbm_end_private_iterate(ptr noundef %51)
  br label %52

52:                                               ; preds = %48, %43
  %53 = load ptr, ptr %5, align 8
  %54 = getelementptr inbounds nuw %struct.GinScanEntryData, ptr %53, i32 0, i32 9
  %55 = load ptr, ptr %54, align 8
  %56 = icmp ne ptr %55, null
  br i1 %56, label %57, label %61

57:                                               ; preds = %52
  %58 = load ptr, ptr %5, align 8
  %59 = getelementptr inbounds nuw %struct.GinScanEntryData, ptr %58, i32 0, i32 9
  %60 = load ptr, ptr %59, align 8
  call void @tbm_free(ptr noundef %60)
  br label %61

61:                                               ; preds = %57, %52
  call void @llvm.lifetime.end.p0(i64 8, ptr %5) #8
  br label %62

62:                                               ; preds = %61
  %63 = load i32, ptr %3, align 4
  %64 = add i32 %63, 1
  store i32 %64, ptr %3, align 4
  br label %12, !llvm.loop !4

65:                                               ; preds = %12
  %66 = load ptr, ptr %2, align 8
  %67 = getelementptr inbounds nuw %struct.GinScanOpaqueData, ptr %66, i32 0, i32 7
  %68 = load ptr, ptr %67, align 8
  call void @MemoryContextReset(ptr noundef %68)
  %69 = load ptr, ptr %2, align 8
  %70 = getelementptr inbounds nuw %struct.GinScanOpaqueData, ptr %69, i32 0, i32 2
  store ptr null, ptr %70, align 8
  %71 = load ptr, ptr %2, align 8
  %72 = getelementptr inbounds nuw %struct.GinScanOpaqueData, ptr %71, i32 0, i32 3
  store i32 0, ptr %72, align 8
  %73 = load ptr, ptr %2, align 8
  %74 = getelementptr inbounds nuw %struct.GinScanOpaqueData, ptr %73, i32 0, i32 4
  store ptr null, ptr %74, align 8
  %75 = load ptr, ptr %2, align 8
  %76 = getelementptr inbounds nuw %struct.GinScanOpaqueData, ptr %75, i32 0, i32 5
  store i32 0, ptr %76, align 8
  store i32 0, ptr %4, align 4
  br label %77

77:                                               ; preds = %65, %10
  call void @llvm.lifetime.end.p0(i64 4, ptr %3) #8
  %78 = load i32, ptr %4, align 4
  switch i32 %78, label %80 [
    i32 0, label %79
    i32 1, label %79
  ]

79:                                               ; preds = %77, %77
  ret void

80:                                               ; preds = %77
  unreachable
}