; Function Attrs: nounwind uwtable
define dso_local void @ginFreeScanKeys(ptr noundef captures(none) %0) local_unnamed_addr #0 {
  %2 = getelementptr inbounds nuw i8, ptr %0, i64 9664
  %3 = load ptr, ptr %2, align 8
  %4 = icmp eq ptr %3, null
  br i1 %4, label %35, label %.preheader

.preheader:                                       ; preds = %1
  %5 = getelementptr inbounds nuw i8, ptr %0, i64 9688
  %6 = load i32, ptr %5, align 8
  %.not26 = icmp eq i32 %6, 0
  br i1 %.not26, label %._crit_edge, label %.lr.ph

.lr.ph:                                           ; preds = %.preheader
  %7 = getelementptr inbounds nuw i8, ptr %0, i64 9680
  br label %8

8:                                                ; preds = %.lr.ph, %27
  %indvars.iv = phi i64 [ 0, %.lr.ph ], [ %indvars.iv.next, %27 ]
  %9 = load ptr, ptr %7, align 8
  %10 = getelementptr inbounds nuw ptr, ptr %9, i64 %indvars.iv
  %11 = load ptr, ptr %10, align 8
  %12 = getelementptr inbounds nuw i8, ptr %11, i64 36
  %13 = load i32, ptr %12, align 4
  %.not = icmp eq i32 %13, 0
  br i1 %.not, label %15, label %14

14:                                               ; preds = %8
  tail call void @ReleaseBuffer(i32 noundef %13) #7
  br label %15

15:                                               ; preds = %14, %8
  %16 = getelementptr inbounds nuw i8, ptr %11, i64 72
  %17 = load ptr, ptr %16, align 8
  %.not22 = icmp eq ptr %17, null
  br i1 %.not22, label %19, label %18

18:                                               ; preds = %15
  tail call void @pfree(ptr noundef nonnull %17) #7
  br label %19

19:                                               ; preds = %18, %15
  %20 = getelementptr inbounds nuw i8, ptr %11, i64 56
  %21 = load ptr, ptr %20, align 8
  %.not23 = icmp eq ptr %21, null
  br i1 %.not23, label %23, label %22

22:                                               ; preds = %19
  tail call void @tbm_end_private_iterate(ptr noundef nonnull %21) #7
  br label %23

23:                                               ; preds = %22, %19
  %24 = getelementptr inbounds nuw i8, ptr %11, i64 48
  %25 = load ptr, ptr %24, align 8
  %.not24 = icmp eq ptr %25, null
  br i1 %.not24, label %27, label %26

26:                                               ; preds = %23
  tail call void @tbm_free(ptr noundef nonnull %25) #7
  br label %27

27:                                               ; preds = %26, %23
  %indvars.iv.next = add nuw nsw i64 %indvars.iv, 1
  %28 = load i32, ptr %5, align 8
  %29 = zext i32 %28 to i64
  %30 = icmp samesign ult i64 %indvars.iv.next, %29
  br i1 %30, label %8, label %._crit_edge, !llvm.loop !4

._crit_edge:                                      ; preds = %27, %.preheader
  %31 = getelementptr inbounds nuw i8, ptr %0, i64 9696
  %32 = load ptr, ptr %31, align 8
  tail call void @MemoryContextReset(ptr noundef %32) #7
  store ptr null, ptr %2, align 8
  %33 = getelementptr inbounds nuw i8, ptr %0, i64 9672
  store i32 0, ptr %33, align 8
  %34 = getelementptr inbounds nuw i8, ptr %0, i64 9680
  store ptr null, ptr %34, align 8
  store i32 0, ptr %5, align 8
  br label %35

35:                                               ; preds = %1, %._crit_edge
  ret void
}